target datalayout = "e-m:e-p270:32:32-p271:32:32-p272:64:64-i64:64-i128:128-f80:128-n8:16:32:64-S128"
target triple = "x86_64-pc-linux-gnu"

%"class.absl::lts_20240722::AnyInvocable" = type { %"class.absl::lts_20240722::internal_any_invocable::Impl" }
%"class.absl::lts_20240722::internal_any_invocable::Impl" = type { %"class.absl::lts_20240722::internal_any_invocable::CoreImpl" }
%"class.absl::lts_20240722::internal_any_invocable::CoreImpl" = type { %"union.absl::lts_20240722::internal_any_invocable::TypeErasedState", ptr, ptr }
%"union.absl::lts_20240722::internal_any_invocable::TypeErasedState" = type { %struct.anon }
%struct.anon = type { ptr, i64 }

@_ZN17grpc_event_engine12experimental12_GLOBAL__N_121g_timestamps_callbackE = internal global %"class.absl::lts_20240722::AnyInvocable" zeroinitializer, align 16

; Function Attrs: noinline noreturn nounwind uwtable
define linkonce_odr hidden void @__clang_call_terminate(ptr noundef %0) #19 comdat {
  %2 = call ptr @__cxa_begin_catch(ptr %0) #3
  call void @_ZSt9terminatev() #22
  unreachable
}

; Function Attrs: mustprogress nounwind uwtable
define linkonce_odr void @_ZN4absl12lts_2024072222internal_any_invocable8CoreImplILb0EvJPvPN17grpc_event_engine12experimental10TimestampsENS0_6StatusEEE5ClearEv(ptr noundef nonnull align 16 dereferenceable(32) %0) #6 comdat align 2 {
  %2 = alloca ptr, align 8
  store ptr %0, ptr %2, align 8, !tbaa !7
  %3 = load ptr, ptr %2, align 8
  %4 = getelementptr inbounds nuw %"class.absl::lts_20240722::internal_any_invocable::CoreImpl", ptr %3, i32 0, i32 1
  %5 = load ptr, ptr %4, align 16, !tbaa !9
  %6 = getelementptr inbounds nuw %"class.absl::lts_20240722::internal_any_invocable::CoreImpl", ptr %3, i32 0, i32 0
  %7 = getelementptr inbounds nuw %"class.absl::lts_20240722::internal_any_invocable::CoreImpl", ptr %3, i32 0, i32 0
  call void %5(i1 noundef zeroext true, ptr noundef %6, ptr noundef %7) #3
  %8 = getelementptr inbounds nuw %"class.absl::lts_20240722::internal_any_invocable::CoreImpl", ptr %3, i32 0, i32 1
  store ptr @_ZN4absl12lts_2024072222internal_any_invocable12EmptyManagerENS1_14FunctionToCallEPNS1_15TypeErasedStateES4_, ptr %8, align 16, !tbaa !9
  %9 = getelementptr inbounds nuw %"class.absl::lts_20240722::internal_any_invocable::CoreImpl", ptr %3, i32 0, i32 2
  store ptr null, ptr %9, align 8, !tbaa !127
  ret void
}

; Function Attrs: mustprogress nounwind uwtable
define linkonce_odr noundef nonnull align 16 dereferenceable(32) ptr @_ZN4absl12lts_2024072222internal_any_invocable8CoreImplILb0EvJPvPN17grpc_event_engine12experimental10TimestampsENS0_6StatusEEEaSEOS9_(ptr noundef nonnull align 16 dereferenceable(32) %0, ptr noundef nonnull align 16 dereferenceable(32) %1) #6 comdat align 2 personality ptr @__gxx_personality_v0 {
  %3 = alloca ptr, align 8
  %4 = alloca ptr, align 8
  store ptr %0, ptr %3, align 8, !tbaa !7
  store ptr %1, ptr %4, align 8, !tbaa !7
  %5 = load ptr, ptr %3, align 8
  invoke void @_ZN4absl12lts_2024072222internal_any_invocable8CoreImplILb0EvJPvPN17grpc_event_engine12experimental10TimestampsENS0_6StatusEEE5ClearEv(ptr noundef nonnull align 16 dereferenceable(32) %5)
          to label %6 unwind label %25

6:                                                ; preds = %2
  %7 = load ptr, ptr %4, align 8, !tbaa !7
  %8 = getelementptr inbounds nuw %"class.absl::lts_20240722::internal_any_invocable::CoreImpl", ptr %7, i32 0, i32 1
  %9 = load ptr, ptr %8, align 16, !tbaa !9
  %10 = load ptr, ptr %4, align 8, !tbaa !7
  %11 = getelementptr inbounds nuw %"class.absl::lts_20240722::internal_any_invocable::CoreImpl", ptr %10, i32 0, i32 0
  %12 = getelementptr inbounds nuw %"class.absl::lts_20240722::internal_any_invocable::CoreImpl", ptr %5, i32 0, i32 0
  call void %9(i1 noundef zeroext false, ptr noundef %11, ptr noundef %12) #3
  %13 = load ptr, ptr %4, align 8, !tbaa !7
  %14 = getelementptr inbounds nuw %"class.absl::lts_20240722::internal_any_invocable::CoreImpl", ptr %13, i32 0, i32 1
  %15 = load ptr, ptr %14, align 16, !tbaa !9
  %16 = getelementptr inbounds nuw %"class.absl::lts_20240722::internal_any_invocable::CoreImpl", ptr %5, i32 0, i32 1
  store ptr %15, ptr %16, align 16, !tbaa !9
  %17 = load ptr, ptr %4, align 8, !tbaa !7
  %18 = getelementptr inbounds nuw %"class.absl::lts_20240722::internal_any_invocable::CoreImpl", ptr %17, i32 0, i32 2
  %19 = load ptr, ptr %18, align 8, !tbaa !127
  %20 = getelementptr inbounds nuw %"class.absl::lts_20240722::internal_any_invocable::CoreImpl", ptr %5, i32 0, i32 2
  store ptr %19, ptr %20, align 8, !tbaa !127
  %21 = load ptr, ptr %4, align 8, !tbaa !7
  %22 = getelementptr inbounds nuw %"class.absl::lts_20240722::internal_any_invocable::CoreImpl", ptr %21, i32 0, i32 1
  store ptr @_ZN4absl12lts_2024072222internal_any_invocable12EmptyManagerENS1_14FunctionToCallEPNS1_15TypeErasedStateES4_, ptr %22, align 16, !tbaa !9
  %23 = load ptr, ptr %4, align 8, !tbaa !7
  %24 = getelementptr inbounds nuw %"class.absl::lts_20240722::internal_any_invocable::CoreImpl", ptr %23, i32 0, i32 2
  store ptr null, ptr %24, align 8, !tbaa !127
  ret ptr %5

25:                                               ; preds = %2
  %26 = landingpad { ptr, i32 }
          catch ptr null
  %27 = extractvalue { ptr, i32 } %26, 0
  call void @__clang_call_terminate(ptr %27) #22
  unreachable
}

; Function Attrs: inlinehint mustprogress nounwind uwtable
define linkonce_odr noundef nonnull align 16 dereferenceable(32) ptr @_ZN4absl12lts_2024072222internal_any_invocable4ImplIFvPvPN17grpc_event_engine12experimental10TimestampsENS0_6StatusEEEaSEOSA_(ptr noundef nonnull align 16 dereferenceable(32) %0, ptr noundef nonnull align 16 dereferenceable(32) %1) #11 comdat align 2 {
  %3 = alloca ptr, align 8
  %4 = alloca ptr, align 8
  store ptr %0, ptr %3, align 8, !tbaa !97
  store ptr %1, ptr %4, align 8, !tbaa !97
  %5 = load ptr, ptr %3, align 8
  %6 = load ptr, ptr %4, align 8, !tbaa !97
  %7 = call noundef nonnull align 16 dereferenceable(32) ptr @_ZN4absl12lts_2024072222internal_any_invocable8CoreImplILb0EvJPvPN17grpc_event_engine12experimental10TimestampsENS0_6StatusEEEaSEOS9_(ptr noundef nonnull align 16 dereferenceable(32) %5, ptr noundef nonnull align 16 dereferenceable(32) %6) #3
  ret ptr %5
}

; Function Attrs: mustprogress nounwind uwtable
define linkonce_odr noundef nonnull align 16 dereferenceable(32) ptr @_ZN4absl12lts_2024072212AnyInvocableIFvPvPN17grpc_event_engine12experimental10TimestampsENS0_6StatusEEEaSEOS9_(ptr noundef nonnull align 16 dereferenceable(32) %0, ptr noundef nonnull align 16 dereferenceable(32) %1) #6 comdat align 2 {
  %3 = alloca ptr, align 8
  %4 = alloca ptr, align 8
  store ptr %0, ptr %3, align 8, !tbaa !111
  store ptr %1, ptr %4, align 8, !tbaa !111
  %5 = load ptr, ptr %3, align 8
  %6 = load ptr, ptr %4, align 8, !tbaa !111
  %7 = call noundef nonnull align 16 dereferenceable(32) ptr @_ZN4absl12lts_2024072222internal_any_invocable4ImplIFvPvPN17grpc_event_engine12experimental10TimestampsENS0_6StatusEEEaSEOSA_(ptr noundef nonnull align 16 dereferenceable(32) %5, ptr noundef nonnull align 16 dereferenceable(32) %6) #3
  ret ptr %5
}

; Function Attrs: mustprogress nounwind uwtable
define void @_ZN17grpc_event_engine12experimental29TcpSetWriteTimestampsCallbackEN4absl12lts_2024072212AnyInvocableIFvPvPNS0_10TimestampsENS2_6StatusEEEE(ptr noundef %0) #6 {
  %2 = alloca ptr, align 8
  store ptr %0, ptr %2, align 8, !tbaa !111
  %3 = call noundef nonnull align 16 dereferenceable(32) ptr @_ZN4absl12lts_2024072212AnyInvocableIFvPvPN17grpc_event_engine12experimental10TimestampsENS0_6StatusEEEaSEOS9_(ptr noundef nonnull align 16 dereferenceable(32) @_ZN17grpc_event_engine12experimental12_GLOBAL__N_121g_timestamps_callbackE, ptr noundef nonnull align 16 dereferenceable(32) %0) #3
  ret void
}