; Function Attrs: mustprogress nounwind uwtable
define void @_ZN17grpc_event_engine12experimental29TcpSetWriteTimestampsCallbackEN4absl12lts_2024072212AnyInvocableIFvPvPNS0_10TimestampsENS2_6StatusEEEE(ptr noundef %0) local_unnamed_addr #4 personality ptr @__gxx_personality_v0 {
  %2 = load ptr, ptr getelementptr inbounds nuw (i8, ptr @_ZN17grpc_event_engine12experimental12_GLOBAL__N_121g_timestamps_callbackE, i64 16), align 16, !tbaa !3
  tail call void %2(i1 noundef zeroext true, ptr noundef nonnull align 16 dereferenceable(32) @_ZN17grpc_event_engine12experimental12_GLOBAL__N_121g_timestamps_callbackE, ptr noundef nonnull align 16 dereferenceable(32) @_ZN17grpc_event_engine12experimental12_GLOBAL__N_121g_timestamps_callbackE) #17
  store ptr @_ZN4absl12lts_2024072222internal_any_invocable12EmptyManagerENS1_14FunctionToCallEPNS1_15TypeErasedStateES4_, ptr getelementptr inbounds nuw (i8, ptr @_ZN17grpc_event_engine12experimental12_GLOBAL__N_121g_timestamps_callbackE, i64 16), align 16, !tbaa !3
  store ptr null, ptr getelementptr inbounds nuw (i8, ptr @_ZN17grpc_event_engine12experimental12_GLOBAL__N_121g_timestamps_callbackE, i64 24), align 8, !tbaa !72
  %3 = getelementptr inbounds nuw i8, ptr %0, i64 16
  %4 = load ptr, ptr %3, align 16, !tbaa !3
  tail call void %4(i1 noundef zeroext false, ptr noundef nonnull align 16 dereferenceable(32) %0, ptr noundef nonnull align 16 dereferenceable(32) @_ZN17grpc_event_engine12experimental12_GLOBAL__N_121g_timestamps_callbackE) #17
  %5 = load ptr, ptr %3, align 16, !tbaa !3
  store ptr %5, ptr getelementptr inbounds nuw (i8, ptr @_ZN17grpc_event_engine12experimental12_GLOBAL__N_121g_timestamps_callbackE, i64 16), align 16, !tbaa !3
  %6 = getelementptr inbounds nuw i8, ptr %0, i64 24
  %7 = load ptr, ptr %6, align 8, !tbaa !72
  store ptr %7, ptr getelementptr inbounds nuw (i8, ptr @_ZN17grpc_event_engine12experimental12_GLOBAL__N_121g_timestamps_callbackE, i64 24), align 8, !tbaa !72
  store ptr @_ZN4absl12lts_2024072222internal_any_invocable12EmptyManagerENS1_14FunctionToCallEPNS1_15TypeErasedStateES4_, ptr %3, align 16, !tbaa !3
  store ptr null, ptr %6, align 8, !tbaa !72
  ret void
}